; Function Attrs: mustprogress nofree norecurse nosync nounwind willreturn memory(readwrite, inaccessiblemem: none) uwtable
define hidden void @_ZN5zxing13GenericGFPoly15getCoefficientsEv(ptr dead_on_unwind noalias writable writeonly sret(%"class.zxing::ArrayRef") align 8 captures(none) initializes((0, 12), (16, 24)) %0, ptr noundef nonnull readonly align 8 captures(none) dereferenceable(48) %1) local_unnamed_addr #5 align 2 personality ptr @__gxx_personality_v0 {
  %3 = getelementptr inbounds nuw i8, ptr %0, i64 8
  store i32 0, ptr %3, align 8, !tbaa !3
  store ptr getelementptr inbounds nuw inrange(-16, 16) (i8, ptr @_ZTVN5zxing8ArrayRefIiEE, i64 16), ptr %0, align 8, !tbaa !8
  %4 = getelementptr inbounds nuw i8, ptr %1, i64 40
  %5 = load ptr, ptr %4, align 8, !tbaa !13
  %.not.i.i = icmp eq ptr %5, null
  br i1 %.not.i.i, label %_ZN5zxing8ArrayRefIiEC2ERKS1_.exit, label %6

6:                                                ; preds = %2
  %7 = getelementptr inbounds nuw i8, ptr %5, i64 8
  %8 = load i32, ptr %7, align 8, !tbaa !3
  %9 = add i32 %8, 1
  store i32 %9, ptr %7, align 8, !tbaa !3
  br label %_ZN5zxing8ArrayRefIiEC2ERKS1_.exit

_ZN5zxing8ArrayRefIiEC2ERKS1_.exit:               ; preds = %2, %6
  %10 = getelementptr inbounds nuw i8, ptr %0, i64 16
  store ptr %5, ptr %10, align 8, !tbaa !13
  ret void
}